
../am-kernels/tests/cpu-tests/build/add-riscv64-mycpu.elf:     file format elf64-littleriscv


Disassembly of section .text:

0000000080000000 <_start>:
    80000000:	00000413          	addi	x8,x0,0
    80000004:	00009117          	auipc	x2,0x9
    80000008:	ffc10113          	addi	x2,x2,-4 # 80009000 <_end>
    8000000c:	0d8000ef          	jal	x1,800000e4 <_trm_init>

0000000080000010 <check>:
    80000010:	00050463          	beq	x10,x0,80000018 <check+0x8>
    80000014:	00008067          	jalr	x0,0(x1)
    80000018:	ff010113          	addi	x2,x2,-16
    8000001c:	00100513          	addi	x10,x0,1
    80000020:	00113423          	sd	x1,8(x2)
    80000024:	0bc000ef          	jal	x1,800000e0 <halt>

0000000080000028 <main>:
    80000028:	fc010113          	addi	x2,x2,-64
    8000002c:	01613023          	sd	x22,0(x2)
    80000030:	00000b17          	auipc	x22,0x0
    80000034:	1d8b0b13          	addi	x22,x22,472 # 80000208 <test_data>
    80000038:	01313c23          	sd	x19,24(x2)
    8000003c:	01413823          	sd	x20,16(x2)
    80000040:	01513423          	sd	x21,8(x2)
    80000044:	02113c23          	sd	x1,56(x2)
    80000048:	02813823          	sd	x8,48(x2)
    8000004c:	02913423          	sd	x9,40(x2)
    80000050:	03213023          	sd	x18,32(x2)
    80000054:	00000a97          	auipc	x21,0x0
    80000058:	0b4a8a93          	addi	x21,x21,180 # 80000108 <ans>
    8000005c:	00000997          	auipc	x19,0x0
    80000060:	1cc98993          	addi	x19,x19,460 # 80000228 <_bss_start>
    80000064:	000b0a13          	addi	x20,x22,0
    80000068:	000a2903          	lw	x18,0(x20)
    8000006c:	000a8493          	addi	x9,x21,0
    80000070:	000b0413          	addi	x8,x22,0
    80000074:	00042503          	lw	x10,0(x8)
    80000078:	0004a783          	lw	x15,0(x9)
    8000007c:	00440413          	addi	x8,x8,4
    80000080:	0125053b          	addw	x10,x10,x18
    80000084:	40f50533          	sub	x10,x10,x15
    80000088:	00153513          	sltiu	x10,x10,1
    8000008c:	f85ff0ef          	jal	x1,80000010 <check>
    80000090:	00448493          	addi	x9,x9,4
    80000094:	ff3410e3          	bne	x8,x19,80000074 <main+0x4c>
    80000098:	00100513          	addi	x10,x0,1
    8000009c:	004a0a13          	addi	x20,x20,4
    800000a0:	f71ff0ef          	jal	x1,80000010 <check>
    800000a4:	020a8a93          	addi	x21,x21,32
    800000a8:	fc8a10e3          	bne	x20,x8,80000068 <main+0x40>
    800000ac:	00100513          	addi	x10,x0,1
    800000b0:	f61ff0ef          	jal	x1,80000010 <check>
    800000b4:	03813083          	ld	x1,56(x2)
    800000b8:	03013403          	ld	x8,48(x2)
    800000bc:	02813483          	ld	x9,40(x2)
    800000c0:	02013903          	ld	x18,32(x2)
    800000c4:	01813983          	ld	x19,24(x2)
    800000c8:	01013a03          	ld	x20,16(x2)
    800000cc:	00813a83          	ld	x21,8(x2)
    800000d0:	00013b03          	ld	x22,0(x2)
    800000d4:	00000513          	addi	x10,x0,0
    800000d8:	04010113          	addi	x2,x2,64
    800000dc:	00008067          	jalr	x0,0(x1)

00000000800000e0 <halt>:
    800000e0:	0000006f          	jal	x0,800000e0 <halt>

00000000800000e4 <_trm_init>:
    800000e4:	ff010113          	addi	x2,x2,-16
    800000e8:	00000517          	auipc	x10,0x0
    800000ec:	01850513          	addi	x10,x10,24 # 80000100 <mainargs>
    800000f0:	00113423          	sd	x1,8(x2)
    800000f4:	f35ff0ef          	jal	x1,80000028 <main>
    800000f8:	0000006f          	jal	x0,800000f8 <_trm_init+0x14>
